target datalayout = "e-m:e-p270:32:32-p271:32:32-p272:64:64-i64:64-i128:128-f80:128-n8:16:32:64-S128"
target triple = "x86_64-pc-linux-gnu"

%"class.std::unique_ptr.188" = type { %"struct.std::__uniq_ptr_data.189" }
%"struct.std::__uniq_ptr_data.189" = type { %"class.std::__uniq_ptr_impl.190" }
%"class.std::__uniq_ptr_impl.190" = type { %"class.std::tuple.191" }
%"class.std::tuple.191" = type { %"struct.std::_Tuple_impl.192" }
%"struct.std::_Tuple_impl.192" = type { %"struct.std::_Head_base.195" }
%"struct.std::_Head_base.195" = type { ptr }

; Function Attrs: mustprogress nounwind uwtable
define dso_local void @_ZN4llvm3pdb13NativeSession19findSymbolByAddressEmNS0_11PDB_SymTypeE(ptr dead_on_unwind noalias writable sret(%"class.std::unique_ptr.188") align 8 %0, ptr noundef nonnull align 8 dereferenceable(584) %1, i64 noundef %2, i32 noundef %3) unnamed_addr #0 align 2 {
  %5 = alloca ptr, align 8
  %6 = alloca ptr, align 8
  %7 = alloca i64, align 8
  %8 = alloca i32, align 4
  %9 = alloca i32, align 4
  %10 = alloca i32, align 4
  store ptr %0, ptr %5, align 8
  store ptr %1, ptr %6, align 8
  store i64 %2, ptr %7, align 8
  store i32 %3, ptr %8, align 4
  %11 = load ptr, ptr %6, align 8
  %12 = load i64, ptr %7, align 8
  %13 = load ptr, ptr %11, align 8
  %14 = getelementptr inbounds ptr, ptr %13, i64 6
  %15 = load ptr, ptr %14, align 8
  %16 = call noundef zeroext i1 %15(ptr noundef nonnull align 8 dereferenceable(584) %11, i64 noundef %12, ptr noundef nonnull align 4 dereferenceable(4) %9, ptr noundef nonnull align 4 dereferenceable(4) %10)
  %17 = load i32, ptr %9, align 4
  %18 = load i32, ptr %10, align 4
  %19 = load i32, ptr %8, align 4
  %20 = load ptr, ptr %11, align 8
  %21 = getelementptr inbounds ptr, ptr %20, i64 10
  %22 = load ptr, ptr %21, align 8
  call void %22(ptr dead_on_unwind writable sret(%"class.std::unique_ptr.188") align 8 %0, ptr noundef nonnull align 8 dereferenceable(584) %11, i32 noundef %17, i32 noundef %18, i32 noundef %19)
  ret void
}