; Function Attrs: mustprogress nounwind uwtable
define dso_local void @_ZN4llvm3pdb13NativeSession19findSymbolByAddressEmNS0_11PDB_SymTypeE(ptr dead_on_unwind noalias writable sret(%"class.std::unique_ptr.188") align 8 %0, ptr noundef nonnull align 8 dereferenceable(584) %1, i64 noundef %2, i32 noundef %3) unnamed_addr #0 align 2 {
  %5 = alloca i32, align 4
  %6 = alloca i32, align 4
  %7 = load ptr, ptr %1, align 8
  %8 = getelementptr inbounds nuw i8, ptr %7, i64 48
  %9 = load ptr, ptr %8, align 8
  %10 = call noundef zeroext i1 %9(ptr noundef nonnull align 8 dereferenceable(584) %1, i64 noundef %2, ptr noundef nonnull align 4 dereferenceable(4) %5, ptr noundef nonnull align 4 dereferenceable(4) %6) #16
  %11 = load i32, ptr %5, align 4
  %12 = load i32, ptr %6, align 4
  %13 = load ptr, ptr %1, align 8
  %14 = getelementptr inbounds nuw i8, ptr %13, i64 80
  %15 = load ptr, ptr %14, align 8
  call void %15(ptr dead_on_unwind writable sret(%"class.std::unique_ptr.188") align 8 %0, ptr noundef nonnull align 8 dereferenceable(584) %1, i32 noundef %11, i32 noundef %12, i32 noundef %3) #16
  ret void
}